; Function Attrs: mustprogress nounwind uwtable
define hidden void @_ZN18ObjectSynchronizer5enterE6HandleP9BasicLockP10JavaThread(ptr readonly %0, ptr noundef %1, ptr noundef %2) local_unnamed_addr #0 align 2 {
  %4 = tail call noundef zeroext i1 @_ZN18ObjectSynchronizer15enter_fast_implE6HandleP9BasicLockP10JavaThread(ptr %0, ptr noundef %1, ptr noundef %2)
  br i1 %4, label %.loopexit, label %.preheader

.preheader:                                       ; preds = %3
  %5 = icmp eq ptr %0, null
  br i1 %5, label %_ZNK6HandleclEv.exit.us, label %_ZNK6HandleclEv.exit

_ZNK6HandleclEv.exit.us:                          ; preds = %.preheader, %_ZN18ObjectSynchronizer7inflateEP6ThreadP7oopDescNS_12InflateCauseE.exit.us
  %6 = load i32, ptr @LockingMode, align 4
  %7 = icmp eq i32 %6, 2
  br i1 %7, label %8, label %13

8:                                                ; preds = %_ZNK6HandleclEv.exit.us
  %9 = load ptr, ptr %2, align 8
  %10 = getelementptr inbounds i8, ptr %9, i64 56
  %11 = load ptr, ptr %10, align 8
  %12 = tail call noundef zeroext i1 %11(ptr noundef nonnull align 8 dereferenceable(888) %2) #18
  br i1 %12, label %15, label %13

13:                                               ; preds = %8, %_ZNK6HandleclEv.exit.us
  %14 = tail call noundef ptr @_ZN18ObjectSynchronizer12inflate_implEP10JavaThreadP7oopDescNS_12InflateCauseE(ptr noundef null, ptr noundef null, i32 noundef 1)
  br label %_ZN18ObjectSynchronizer7inflateEP6ThreadP7oopDescNS_12InflateCauseE.exit.us

15:                                               ; preds = %8
  %16 = tail call noundef ptr @_ZN18ObjectSynchronizer12inflate_implEP10JavaThreadP7oopDescNS_12InflateCauseE(ptr noundef nonnull %2, ptr noundef null, i32 noundef 1)
  br label %_ZN18ObjectSynchronizer7inflateEP6ThreadP7oopDescNS_12InflateCauseE.exit.us

_ZN18ObjectSynchronizer7inflateEP6ThreadP7oopDescNS_12InflateCauseE.exit.us: ; preds = %15, %13
  %.0.i.us = phi ptr [ %16, %15 ], [ %14, %13 ]
  %17 = tail call noundef zeroext i1 @_ZN13ObjectMonitor5enterEP10JavaThread(ptr noundef nonnull align 8 dereferenceable(200) %.0.i.us, ptr noundef %2) #18
  br i1 %17, label %.loopexit, label %_ZNK6HandleclEv.exit.us, !llvm.loop !27

_ZNK6HandleclEv.exit:                             ; preds = %.preheader, %_ZN18ObjectSynchronizer7inflateEP6ThreadP7oopDescNS_12InflateCauseE.exit
  %18 = load ptr, ptr %0, align 8
  %19 = load i32, ptr @LockingMode, align 4
  %20 = icmp eq i32 %19, 2
  br i1 %20, label %21, label %28

21:                                               ; preds = %_ZNK6HandleclEv.exit
  %22 = load ptr, ptr %2, align 8
  %23 = getelementptr inbounds i8, ptr %22, i64 56
  %24 = load ptr, ptr %23, align 8
  %25 = tail call noundef zeroext i1 %24(ptr noundef nonnull align 8 dereferenceable(888) %2) #18
  br i1 %25, label %26, label %28

26:                                               ; preds = %21
  %27 = tail call noundef ptr @_ZN18ObjectSynchronizer12inflate_implEP10JavaThreadP7oopDescNS_12InflateCauseE(ptr noundef nonnull %2, ptr noundef %18, i32 noundef 1)
  br label %_ZN18ObjectSynchronizer7inflateEP6ThreadP7oopDescNS_12InflateCauseE.exit

28:                                               ; preds = %21, %_ZNK6HandleclEv.exit
  %29 = tail call noundef ptr @_ZN18ObjectSynchronizer12inflate_implEP10JavaThreadP7oopDescNS_12InflateCauseE(ptr noundef null, ptr noundef %18, i32 noundef 1)
  br label %_ZN18ObjectSynchronizer7inflateEP6ThreadP7oopDescNS_12InflateCauseE.exit

_ZN18ObjectSynchronizer7inflateEP6ThreadP7oopDescNS_12InflateCauseE.exit: ; preds = %26, %28
  %.0.i = phi ptr [ %27, %26 ], [ %29, %28 ]
  %30 = tail call noundef zeroext i1 @_ZN13ObjectMonitor5enterEP10JavaThread(ptr noundef nonnull align 8 dereferenceable(200) %.0.i, ptr noundef %2) #18
  br i1 %30, label %.loopexit, label %_ZNK6HandleclEv.exit, !llvm.loop !27

.loopexit:                                        ; preds = %_ZN18ObjectSynchronizer7inflateEP6ThreadP7oopDescNS_12InflateCauseE.exit, %_ZN18ObjectSynchronizer7inflateEP6ThreadP7oopDescNS_12InflateCauseE.exit.us, %3
  ret void
}